; Function Attrs: mustprogress uwtable
define void @_ZN9grpc_core20Chttp2PingRatePolicy11SetDefaultsERKNS_11ChannelArgsE(ptr noundef nonnull align 8 dereferenceable(8) %0) local_unnamed_addr #3 align 2 personality ptr @__gxx_personality_v0 {
  %2 = tail call i64 @_ZNK9grpc_core11ChannelArgs6GetIntESt17basic_string_viewIcSt11char_traitsIcEE(ptr noundef nonnull align 8 dereferenceable(8) %0, i64 33, ptr nonnull @.str)
  %.sroa.04.0.extract.trunc = trunc i64 %2 to i32
  %3 = and i64 %2, 4294967296
  %.not = icmp eq i64 %3, 0
  %.val2.i = load i32, ptr @_ZN9grpc_core12_GLOBAL__N_137g_default_max_pings_without_data_sentE, align 4
  %.0.i = select i1 %.not, i32 %.val2.i, i32 %.sroa.04.0.extract.trunc
  %.sroa.speculated = tail call i32 @llvm.smax.i32(i32 %.0.i, i32 0)
  store i32 %.sroa.speculated, ptr @_ZN9grpc_core12_GLOBAL__N_137g_default_max_pings_without_data_sentE, align 4, !tbaa !17
  %4 = tail call i64 @_ZNK9grpc_core11ChannelArgs6GetIntESt17basic_string_viewIcSt11char_traitsIcEE(ptr noundef nonnull align 8 dereferenceable(8) %0, i64 29, ptr nonnull @.str.1)
  store i64 %4, ptr @_ZN9grpc_core12_GLOBAL__N_128g_default_max_inflight_pingsE, align 8
  ret void
}